#include <math.h>
#include <stdio.h>
#include <stdlib.h>
#include <string.h>

int main(){
//	int a[8][8],x1[8]={0},y1[8]={0},x2[8]={0},y2[8]={0};
	int a[8][8],x1[8],y1[8],x2[8],y2[8];
	int row,col;
	scanf("%d,%d",&row,&col);
//	printf("%d %d",row,col);
	int x,y;
	for(x=0;x<row;x++){
		for(y=0;y<col;y++){
			scanf("%d",&a[x][y]);
		}
	}
/*	for(x=0;x<row;x++){
		for(y=0;y<col;y++){
			printf("%d",a[x][y]);
		}
	}*/
	int max=0,i=0;
	for(x=0;x<row;x++){
		for(y=0;y<col;y++){
			if(a[x][y]>max){
				max=a[x][y];
				x1[i]=x;
				y1[i]=y;
			}
		}
		i++;
		max=0;
	}
/*	for(i=0;i<8;i++){
		printf("%d %d ",x1[i],y1[i]);
	}*/
	int min=10000,j=0;
	for(y=0;y<col;y++){
		for(x=0;x<row;x++){
			if(a[x][y]<min){
				min=a[x][y];
				x2[j]=x;
				y2[j]=y;
			}
		}
		j++;
		min=10000;
	//	printf("%d %d %d",j,x2[j],y2[j]);
	}
	int p,q,w=0;
	for(p=0;p<row;p++){
		for(q=0;q<j;q++){
			if((x1[p]==x2[q])&&(y1[p]==y2[q])){
				printf("%d+%d",p,q);
				w++;
			}
		}
	}
	if(w==0){printf("No");};
	return 0;
}
