; ModuleID = '35/653.c'
source_filename = "35/653.c"
target datalayout = "e-m:e-p270:32:32-p271:32:32-p272:64:64-i64:64-f80:128-n8:16:32:64-S128"
target triple = "x86_64-pc-linux-gnu"

@.str = private unnamed_addr constant [6 x i8] c"%d,%d\00", align 1
@.str.1 = private unnamed_addr constant [3 x i8] c"%d\00", align 1
@.str.2 = private unnamed_addr constant [6 x i8] c"%d+%d\00", align 1
@.str.3 = private unnamed_addr constant [3 x i8] c"No\00", align 1

; Function Attrs: noinline nounwind uwtable
define dso_local i32 @main() #0 {
  %1 = alloca i32, align 4
  %2 = alloca [8 x [8 x i32]], align 16
  %3 = alloca [8 x i32], align 16
  %4 = alloca [8 x i32], align 16
  %5 = alloca [8 x i32], align 16
  %6 = alloca [8 x i32], align 16
  %7 = alloca i32, align 4
  %8 = alloca i32, align 4
  %9 = alloca i32, align 4
  %10 = alloca i32, align 4
  %11 = alloca i32, align 4
  %12 = alloca i32, align 4
  %13 = alloca i32, align 4
  %14 = alloca i32, align 4
  %15 = alloca i32, align 4
  %16 = alloca i32, align 4
  %17 = alloca i32, align 4
  store i32 0, i32* %1, align 4
  %18 = call i32 (i8*, ...) @__isoc99_scanf(i8* getelementptr inbounds ([6 x i8], [6 x i8]* @.str, i64 0, i64 0), i32* %7, i32* %8)
  store i32 0, i32* %9, align 4
  br label %19

19:                                               ; preds = %40, %0
  %20 = load i32, i32* %9, align 4
  %21 = load i32, i32* %7, align 4
  %22 = icmp slt i32 %20, %21
  br i1 %22, label %23, label %43

23:                                               ; preds = %19
  store i32 0, i32* %10, align 4
  br label %24

24:                                               ; preds = %36, %23
  %25 = load i32, i32* %10, align 4
  %26 = load i32, i32* %8, align 4
  %27 = icmp slt i32 %25, %26
  br i1 %27, label %28, label %39

28:                                               ; preds = %24
  %29 = load i32, i32* %9, align 4
  %30 = sext i32 %29 to i64
  %31 = getelementptr inbounds [8 x [8 x i32]], [8 x [8 x i32]]* %2, i64 0, i64 %30
  %32 = load i32, i32* %10, align 4
  %33 = sext i32 %32 to i64
  %34 = getelementptr inbounds [8 x i32], [8 x i32]* %31, i64 0, i64 %33
  %35 = call i32 (i8*, ...) @__isoc99_scanf(i8* getelementptr inbounds ([3 x i8], [3 x i8]* @.str.1, i64 0, i64 0), i32* %34)
  br label %36

36:                                               ; preds = %28
  %37 = load i32, i32* %10, align 4
  %38 = add nsw i32 %37, 1
  store i32 %38, i32* %10, align 4
  br label %24

39:                                               ; preds = %24
  br label %40

40:                                               ; preds = %39
  %41 = load i32, i32* %9, align 4
  %42 = add nsw i32 %41, 1
  store i32 %42, i32* %9, align 4
  br label %19

43:                                               ; preds = %19
  store i32 0, i32* %11, align 4
  store i32 0, i32* %12, align 4
  store i32 0, i32* %9, align 4
  br label %44

44:                                               ; preds = %86, %43
  %45 = load i32, i32* %9, align 4
  %46 = load i32, i32* %7, align 4
  %47 = icmp slt i32 %45, %46
  br i1 %47, label %48, label %89

48:                                               ; preds = %44
  store i32 0, i32* %10, align 4
  br label %49

49:                                               ; preds = %80, %48
  %50 = load i32, i32* %10, align 4
  %51 = load i32, i32* %8, align 4
  %52 = icmp slt i32 %50, %51
  br i1 %52, label %53, label %83

53:                                               ; preds = %49
  %54 = load i32, i32* %9, align 4
  %55 = sext i32 %54 to i64
  %56 = getelementptr inbounds [8 x [8 x i32]], [8 x [8 x i32]]* %2, i64 0, i64 %55
  %57 = load i32, i32* %10, align 4
  %58 = sext i32 %57 to i64
  %59 = getelementptr inbounds [8 x i32], [8 x i32]* %56, i64 0, i64 %58
  %60 = load i32, i32* %59, align 4
  %61 = load i32, i32* %11, align 4
  %62 = icmp sgt i32 %60, %61
  br i1 %62, label %63, label %79

63:                                               ; preds = %53
  %64 = load i32, i32* %9, align 4
  %65 = sext i32 %64 to i64
  %66 = getelementptr inbounds [8 x [8 x i32]], [8 x [8 x i32]]* %2, i64 0, i64 %65
  %67 = load i32, i32* %10, align 4
  %68 = sext i32 %67 to i64
  %69 = getelementptr inbounds [8 x i32], [8 x i32]* %66, i64 0, i64 %68
  %70 = load i32, i32* %69, align 4
  store i32 %70, i32* %11, align 4
  %71 = load i32, i32* %9, align 4
  %72 = load i32, i32* %12, align 4
  %73 = sext i32 %72 to i64
  %74 = getelementptr inbounds [8 x i32], [8 x i32]* %3, i64 0, i64 %73
  store i32 %71, i32* %74, align 4
  %75 = load i32, i32* %10, align 4
  %76 = load i32, i32* %12, align 4
  %77 = sext i32 %76 to i64
  %78 = getelementptr inbounds [8 x i32], [8 x i32]* %4, i64 0, i64 %77
  store i32 %75, i32* %78, align 4
  br label %79

79:                                               ; preds = %63, %53
  br label %80

80:                                               ; preds = %79
  %81 = load i32, i32* %10, align 4
  %82 = add nsw i32 %81, 1
  store i32 %82, i32* %10, align 4
  br label %49

83:                                               ; preds = %49
  %84 = load i32, i32* %12, align 4
  %85 = add nsw i32 %84, 1
  store i32 %85, i32* %12, align 4
  store i32 0, i32* %11, align 4
  br label %86

86:                                               ; preds = %83
  %87 = load i32, i32* %9, align 4
  %88 = add nsw i32 %87, 1
  store i32 %88, i32* %9, align 4
  br label %44

89:                                               ; preds = %44
  store i32 10000, i32* %13, align 4
  store i32 0, i32* %14, align 4
  store i32 0, i32* %10, align 4
  br label %90

90:                                               ; preds = %132, %89
  %91 = load i32, i32* %10, align 4
  %92 = load i32, i32* %8, align 4
  %93 = icmp slt i32 %91, %92
  br i1 %93, label %94, label %135

94:                                               ; preds = %90
  store i32 0, i32* %9, align 4
  br label %95

95:                                               ; preds = %126, %94
  %96 = load i32, i32* %9, align 4
  %97 = load i32, i32* %7, align 4
  %98 = icmp slt i32 %96, %97
  br i1 %98, label %99, label %129

99:                                               ; preds = %95
  %100 = load i32, i32* %9, align 4
  %101 = sext i32 %100 to i64
  %102 = getelementptr inbounds [8 x [8 x i32]], [8 x [8 x i32]]* %2, i64 0, i64 %101
  %103 = load i32, i32* %10, align 4
  %104 = sext i32 %103 to i64
  %105 = getelementptr inbounds [8 x i32], [8 x i32]* %102, i64 0, i64 %104
  %106 = load i32, i32* %105, align 4
  %107 = load i32, i32* %13, align 4
  %108 = icmp slt i32 %106, %107
  br i1 %108, label %109, label %125

109:                                              ; preds = %99
  %110 = load i32, i32* %9, align 4
  %111 = sext i32 %110 to i64
  %112 = getelementptr inbounds [8 x [8 x i32]], [8 x [8 x i32]]* %2, i64 0, i64 %111
  %113 = load i32, i32* %10, align 4
  %114 = sext i32 %113 to i64
  %115 = getelementptr inbounds [8 x i32], [8 x i32]* %112, i64 0, i64 %114
  %116 = load i32, i32* %115, align 4
  store i32 %116, i32* %13, align 4
  %117 = load i32, i32* %9, align 4
  %118 = load i32, i32* %14, align 4
  %119 = sext i32 %118 to i64
  %120 = getelementptr inbounds [8 x i32], [8 x i32]* %5, i64 0, i64 %119
  store i32 %117, i32* %120, align 4
  %121 = load i32, i32* %10, align 4
  %122 = load i32, i32* %14, align 4
  %123 = sext i32 %122 to i64
  %124 = getelementptr inbounds [8 x i32], [8 x i32]* %6, i64 0, i64 %123
  store i32 %121, i32* %124, align 4
  br label %125

125:                                              ; preds = %109, %99
  br label %126

126:                                              ; preds = %125
  %127 = load i32, i32* %9, align 4
  %128 = add nsw i32 %127, 1
  store i32 %128, i32* %9, align 4
  br label %95

129:                                              ; preds = %95
  %130 = load i32, i32* %14, align 4
  %131 = add nsw i32 %130, 1
  store i32 %131, i32* %14, align 4
  store i32 10000, i32* %13, align 4
  br label %132

132:                                              ; preds = %129
  %133 = load i32, i32* %10, align 4
  %134 = add nsw i32 %133, 1
  store i32 %134, i32* %10, align 4
  br label %90

135:                                              ; preds = %90
  store i32 0, i32* %17, align 4
  store i32 0, i32* %15, align 4
  br label %136

136:                                              ; preds = %176, %135
  %137 = load i32, i32* %15, align 4
  %138 = load i32, i32* %7, align 4
  %139 = icmp slt i32 %137, %138
  br i1 %139, label %140, label %179

140:                                              ; preds = %136
  store i32 0, i32* %16, align 4
  br label %141

141:                                              ; preds = %172, %140
  %142 = load i32, i32* %16, align 4
  %143 = load i32, i32* %14, align 4
  %144 = icmp slt i32 %142, %143
  br i1 %144, label %145, label %175

145:                                              ; preds = %141
  %146 = load i32, i32* %15, align 4
  %147 = sext i32 %146 to i64
  %148 = getelementptr inbounds [8 x i32], [8 x i32]* %3, i64 0, i64 %147
  %149 = load i32, i32* %148, align 4
  %150 = load i32, i32* %16, align 4
  %151 = sext i32 %150 to i64
  %152 = getelementptr inbounds [8 x i32], [8 x i32]* %5, i64 0, i64 %151
  %153 = load i32, i32* %152, align 4
  %154 = icmp eq i32 %149, %153
  br i1 %154, label %155, label %171

155:                                              ; preds = %145
  %156 = load i32, i32* %15, align 4
  %157 = sext i32 %156 to i64
  %158 = getelementptr inbounds [8 x i32], [8 x i32]* %4, i64 0, i64 %157
  %159 = load i32, i32* %158, align 4
  %160 = load i32, i32* %16, align 4
  %161 = sext i32 %160 to i64
  %162 = getelementptr inbounds [8 x i32], [8 x i32]* %6, i64 0, i64 %161
  %163 = load i32, i32* %162, align 4
  %164 = icmp eq i32 %159, %163
  br i1 %164, label %165, label %171

165:                                              ; preds = %155
  %166 = load i32, i32* %15, align 4
  %167 = load i32, i32* %16, align 4
  %168 = call i32 (i8*, ...) @printf(i8* getelementptr inbounds ([6 x i8], [6 x i8]* @.str.2, i64 0, i64 0), i32 %166, i32 %167)
  %169 = load i32, i32* %17, align 4
  %170 = add nsw i32 %169, 1
  store i32 %170, i32* %17, align 4
  br label %171

171:                                              ; preds = %165, %155, %145
  br label %172

172:                                              ; preds = %171
  %173 = load i32, i32* %16, align 4
  %174 = add nsw i32 %173, 1
  store i32 %174, i32* %16, align 4
  br label %141

175:                                              ; preds = %141
  br label %176

176:                                              ; preds = %175
  %177 = load i32, i32* %15, align 4
  %178 = add nsw i32 %177, 1
  store i32 %178, i32* %15, align 4
  br label %136

179:                                              ; preds = %136
  %180 = load i32, i32* %17, align 4
  %181 = icmp eq i32 %180, 0
  br i1 %181, label %182, label %184

182:                                              ; preds = %179
  %183 = call i32 (i8*, ...) @printf(i8* getelementptr inbounds ([3 x i8], [3 x i8]* @.str.3, i64 0, i64 0))
  br label %184

184:                                              ; preds = %182, %179
  ret i32 0
}

declare dso_local i32 @__isoc99_scanf(i8*, ...) #1

declare dso_local i32 @printf(i8*, ...) #1


!llvm.module.flags = !{!0}
!llvm.ident = !{!1}

!0 = !{i32 1, !"wchar_size", i32 4}
!1 = !{!"clang version 10.0.0-4ubuntu1 "}
